; Function Attrs: mustprogress uwtable
define noundef ptr @_ZNK7Imf_3_217ScanLineInputFile8fileNameEv(ptr nocapture noundef nonnull readonly align 8 dereferenceable(24) %this) local_unnamed_addr #3 align 2 {
entry:
  %_streamData = getelementptr inbounds i8, ptr %this, i64 16
  %0 = load ptr, ptr %_streamData, align 8
  %is = getelementptr inbounds i8, ptr %0, i64 40
  %1 = load ptr, ptr %is, align 8
  %call = tail call noundef ptr @_ZNK7Imf_3_27IStream8fileNameEv(ptr noundef nonnull align 8 dereferenceable(40) %1)
  ret ptr %call
}